target datalayout = "e-m:e-p270:32:32-p271:32:32-p272:64:64-i64:64-i128:128-f80:128-n8:16:32:64-S128"
target triple = "x86_64-pc-linux-gnu"

%"class.xgboost::Value" = type { ptr, %"class.xgboost::IntrusivePtrCell", i64 }
%"class.xgboost::IntrusivePtrCell" = type { %"struct.std::atomic" }
%"struct.std::atomic" = type { %"struct.std::__atomic_base" }
%"struct.std::__atomic_base" = type { i32 }
%"class.xgboost::JsonWriter" = type { ptr, ptr }
%"struct.std::_Vector_base.46" = type { %"struct.std::_Vector_base<char, std::allocator<char>>::_Vector_impl" }
%"struct.std::_Vector_base<char, std::allocator<char>>::_Vector_impl" = type { %"struct.std::_Vector_base<char, std::allocator<char>>::_Vector_impl_data" }
%"struct.std::_Vector_base<char, std::allocator<char>>::_Vector_impl_data" = type { ptr, ptr, ptr }
%"class.xgboost::JsonBoolean" = type <{ %"class.xgboost::Value", i8, [7 x i8] }>

; Function Attrs: mustprogress nounwind uwtable
define linkonce_odr noundef nonnull align 1 dereferenceable(1) ptr @_ZNSt6vectorIcSaIcEEixEm(ptr noundef nonnull align 8 dereferenceable(24) %0, i64 noundef %1) #5 comdat align 2 {
  %3 = alloca ptr, align 8
  %4 = alloca i64, align 8
  store ptr %0, ptr %3, align 8, !tbaa !129
  store i64 %1, ptr %4, align 8, !tbaa !22
  %5 = load ptr, ptr %3, align 8
  %6 = getelementptr inbounds nuw %"struct.std::_Vector_base.46", ptr %5, i32 0, i32 0
  %7 = getelementptr inbounds nuw %"struct.std::_Vector_base<char, std::allocator<char>>::_Vector_impl_data", ptr %6, i32 0, i32 0
  %8 = load ptr, ptr %7, align 8, !tbaa !150
  %9 = load i64, ptr %4, align 8, !tbaa !22
  %10 = getelementptr inbounds nuw i8, ptr %8, i64 %9
  ret ptr %10
}

; Function Attrs: mustprogress nounwind uwtable
define linkonce_odr noundef i64 @_ZNKSt6vectorIcSaIcEE4sizeEv(ptr noundef nonnull align 8 dereferenceable(24) %0) #5 comdat align 2 {
  %2 = alloca ptr, align 8
  store ptr %0, ptr %2, align 8, !tbaa !129
  %3 = load ptr, ptr %2, align 8
  %4 = getelementptr inbounds nuw %"struct.std::_Vector_base.46", ptr %3, i32 0, i32 0
  %5 = getelementptr inbounds nuw %"struct.std::_Vector_base<char, std::allocator<char>>::_Vector_impl_data", ptr %4, i32 0, i32 1
  %6 = load ptr, ptr %5, align 8, !tbaa !130
  %7 = getelementptr inbounds nuw %"struct.std::_Vector_base.46", ptr %3, i32 0, i32 0
  %8 = getelementptr inbounds nuw %"struct.std::_Vector_base<char, std::allocator<char>>::_Vector_impl_data", ptr %7, i32 0, i32 0
  %9 = load ptr, ptr %8, align 8, !tbaa !150
  %10 = ptrtoint ptr %6 to i64
  %11 = ptrtoint ptr %9 to i64
  %12 = sub i64 %10, %11
  ret i64 %12
}

; Function Attrs: mustprogress nounwind uwtable
define linkonce_odr noundef nonnull align 1 dereferenceable(1) ptr @_ZNKR7xgboost11JsonBoolean10GetBooleanEv(ptr noundef nonnull align 8 dereferenceable(25) %0) #5 comdat align 2 {
  %2 = alloca ptr, align 8
  store ptr %0, ptr %2, align 8, !tbaa !164
  %3 = load ptr, ptr %2, align 8
  %4 = getelementptr inbounds nuw %"class.xgboost::JsonBoolean", ptr %3, i32 0, i32 1
  ret ptr %4
}

; Function Attrs: mustprogress uwtable
define void @_ZN7xgboost10JsonWriter5VisitEPKNS_11JsonBooleanE(ptr noundef nonnull align 8 dereferenceable(16) %0, ptr noundef %1) unnamed_addr #4 align 2 {
  %3 = alloca ptr, align 8
  %4 = alloca ptr, align 8
  %5 = alloca i8, align 1
  %6 = alloca i64, align 8
  %7 = alloca ptr, align 8
  %8 = alloca ptr, align 8
  store ptr %0, ptr %3, align 8, !tbaa !36
  store ptr %1, ptr %4, align 8, !tbaa !164
  %9 = load ptr, ptr %3, align 8
  call void @llvm.lifetime.start.p0(i64 1, ptr %5) #3
  %10 = load ptr, ptr %4, align 8, !tbaa !164
  %11 = call noundef nonnull align 1 dereferenceable(1) ptr @_ZNKR7xgboost11JsonBoolean10GetBooleanEv(ptr noundef nonnull align 8 dereferenceable(25) %10)
  %12 = load i8, ptr %11, align 1, !tbaa !28, !range !32, !noundef !33
  %13 = trunc i8 %12 to i1
  %14 = zext i1 %13 to i8
  store i8 %14, ptr %5, align 1, !tbaa !28
  call void @llvm.lifetime.start.p0(i64 8, ptr %6) #3
  %15 = getelementptr inbounds nuw %"class.xgboost::JsonWriter", ptr %9, i32 0, i32 1
  %16 = load ptr, ptr %15, align 8, !tbaa !110
  %17 = call noundef i64 @_ZNKSt6vectorIcSaIcEE4sizeEv(ptr noundef nonnull align 8 dereferenceable(24) %16) #3
  store i64 %17, ptr %6, align 8, !tbaa !22
  %18 = load i8, ptr %5, align 1, !tbaa !28, !range !32, !noundef !33
  %19 = trunc i8 %18 to i1
  br i1 %19, label %20, label %43

20:                                               ; preds = %2
  %21 = getelementptr inbounds nuw %"class.xgboost::JsonWriter", ptr %9, i32 0, i32 1
  %22 = load ptr, ptr %21, align 8, !tbaa !110
  %23 = load i64, ptr %6, align 8, !tbaa !22
  %24 = add i64 %23, 4
  call void @_ZNSt6vectorIcSaIcEE6resizeEm(ptr noundef nonnull align 8 dereferenceable(24) %22, i64 noundef %24)
  call void @llvm.lifetime.start.p0(i64 8, ptr %7) #3
  %25 = getelementptr inbounds nuw %"class.xgboost::JsonWriter", ptr %9, i32 0, i32 1
  %26 = load ptr, ptr %25, align 8, !tbaa !110
  store ptr %26, ptr %7, align 8, !tbaa !129
  %27 = load ptr, ptr %7, align 8, !tbaa !129
  %28 = load i64, ptr %6, align 8, !tbaa !22
  %29 = add i64 %28, 0
  %30 = call noundef nonnull align 1 dereferenceable(1) ptr @_ZNSt6vectorIcSaIcEEixEm(ptr noundef nonnull align 8 dereferenceable(24) %27, i64 noundef %29) #3
  store i8 116, ptr %30, align 1, !tbaa !60
  %31 = load ptr, ptr %7, align 8, !tbaa !129
  %32 = load i64, ptr %6, align 8, !tbaa !22
  %33 = add i64 %32, 1
  %34 = call noundef nonnull align 1 dereferenceable(1) ptr @_ZNSt6vectorIcSaIcEEixEm(ptr noundef nonnull align 8 dereferenceable(24) %31, i64 noundef %33) #3
  store i8 114, ptr %34, align 1, !tbaa !60
  %35 = load ptr, ptr %7, align 8, !tbaa !129
  %36 = load i64, ptr %6, align 8, !tbaa !22
  %37 = add i64 %36, 2
  %38 = call noundef nonnull align 1 dereferenceable(1) ptr @_ZNSt6vectorIcSaIcEEixEm(ptr noundef nonnull align 8 dereferenceable(24) %35, i64 noundef %37) #3
  store i8 117, ptr %38, align 1, !tbaa !60
  %39 = load ptr, ptr %7, align 8, !tbaa !129
  %40 = load i64, ptr %6, align 8, !tbaa !22
  %41 = add i64 %40, 3
  %42 = call noundef nonnull align 1 dereferenceable(1) ptr @_ZNSt6vectorIcSaIcEEixEm(ptr noundef nonnull align 8 dereferenceable(24) %39, i64 noundef %41) #3
  store i8 101, ptr %42, align 1, !tbaa !60
  call void @llvm.lifetime.end.p0(i64 8, ptr %7) #3
  br label %70

43:                                               ; preds = %2
  %44 = getelementptr inbounds nuw %"class.xgboost::JsonWriter", ptr %9, i32 0, i32 1
  %45 = load ptr, ptr %44, align 8, !tbaa !110
  %46 = load i64, ptr %6, align 8, !tbaa !22
  %47 = add i64 %46, 5
  call void @_ZNSt6vectorIcSaIcEE6resizeEm(ptr noundef nonnull align 8 dereferenceable(24) %45, i64 noundef %47)
  call void @llvm.lifetime.start.p0(i64 8, ptr %8) #3
  %48 = getelementptr inbounds nuw %"class.xgboost::JsonWriter", ptr %9, i32 0, i32 1
  %49 = load ptr, ptr %48, align 8, !tbaa !110
  store ptr %49, ptr %8, align 8, !tbaa !129
  %50 = load ptr, ptr %8, align 8, !tbaa !129
  %51 = load i64, ptr %6, align 8, !tbaa !22
  %52 = add i64 %51, 0
  %53 = call noundef nonnull align 1 dereferenceable(1) ptr @_ZNSt6vectorIcSaIcEEixEm(ptr noundef nonnull align 8 dereferenceable(24) %50, i64 noundef %52) #3
  store i8 102, ptr %53, align 1, !tbaa !60
  %54 = load ptr, ptr %8, align 8, !tbaa !129
  %55 = load i64, ptr %6, align 8, !tbaa !22
  %56 = add i64 %55, 1
  %57 = call noundef nonnull align 1 dereferenceable(1) ptr @_ZNSt6vectorIcSaIcEEixEm(ptr noundef nonnull align 8 dereferenceable(24) %54, i64 noundef %56) #3
  store i8 97, ptr %57, align 1, !tbaa !60
  %58 = load ptr, ptr %8, align 8, !tbaa !129
  %59 = load i64, ptr %6, align 8, !tbaa !22
  %60 = add i64 %59, 2
  %61 = call noundef nonnull align 1 dereferenceable(1) ptr @_ZNSt6vectorIcSaIcEEixEm(ptr noundef nonnull align 8 dereferenceable(24) %58, i64 noundef %60) #3
  store i8 108, ptr %61, align 1, !tbaa !60
  %62 = load ptr, ptr %8, align 8, !tbaa !129
  %63 = load i64, ptr %6, align 8, !tbaa !22
  %64 = add i64 %63, 3
  %65 = call noundef nonnull align 1 dereferenceable(1) ptr @_ZNSt6vectorIcSaIcEEixEm(ptr noundef nonnull align 8 dereferenceable(24) %62, i64 noundef %64) #3
  store i8 115, ptr %65, align 1, !tbaa !60
  %66 = load ptr, ptr %8, align 8, !tbaa !129
  %67 = load i64, ptr %6, align 8, !tbaa !22
  %68 = add i64 %67, 4
  %69 = call noundef nonnull align 1 dereferenceable(1) ptr @_ZNSt6vectorIcSaIcEEixEm(ptr noundef nonnull align 8 dereferenceable(24) %66, i64 noundef %68) #3
  store i8 101, ptr %69, align 1, !tbaa !60
  call void @llvm.lifetime.end.p0(i64 8, ptr %8) #3
  br label %70

70:                                               ; preds = %43, %20
  call void @llvm.lifetime.end.p0(i64 8, ptr %6) #3
  call void @llvm.lifetime.end.p0(i64 1, ptr %5) #3
  ret void
}