; Function Attrs: mustprogress uwtable
define void @_ZN7xgboost10JsonWriter5VisitEPKNS_11JsonBooleanE(ptr noundef nonnull readonly align 8 captures(none) dereferenceable(16) %0, ptr noundef readonly captures(none) %1) unnamed_addr #3 align 2 {
  %3 = getelementptr inbounds nuw i8, ptr %1, i64 24
  %4 = load i8, ptr %3, align 1, !tbaa !226, !range !228, !noundef !229
  %5 = trunc nuw i8 %4 to i1
  %6 = getelementptr inbounds nuw i8, ptr %0, i64 8
  %7 = load ptr, ptr %6, align 8, !tbaa !176
  %8 = getelementptr inbounds nuw i8, ptr %7, i64 8
  %9 = load ptr, ptr %8, align 8, !tbaa !179
  %10 = load ptr, ptr %7, align 8, !tbaa !182
  %11 = ptrtoint ptr %9 to i64
  %12 = ptrtoint ptr %10 to i64
  %13 = sub i64 %11, %12
  br i1 %5, label %14, label %19

14:                                               ; preds = %2
  %15 = add i64 %13, 4
  tail call void @_ZNSt6vectorIcSaIcEE6resizeEm(ptr noundef nonnull align 8 dereferenceable(24) %7, i64 noundef %15)
  %16 = load ptr, ptr %6, align 8, !tbaa !176
  %17 = load ptr, ptr %16, align 8, !tbaa !182
  %18 = getelementptr inbounds nuw i8, ptr %17, i64 %13
  store i8 116, ptr %18, align 1, !tbaa !34
  br label %27

19:                                               ; preds = %2
  %20 = add i64 %13, 5
  tail call void @_ZNSt6vectorIcSaIcEE6resizeEm(ptr noundef nonnull align 8 dereferenceable(24) %7, i64 noundef %20)
  %21 = load ptr, ptr %6, align 8, !tbaa !176
  %22 = load ptr, ptr %21, align 8, !tbaa !182
  %23 = getelementptr inbounds nuw i8, ptr %22, i64 %13
  store i8 102, ptr %23, align 1, !tbaa !34
  %24 = load ptr, ptr %21, align 8, !tbaa !182
  %25 = getelementptr i8, ptr %24, i64 %13
  %26 = getelementptr i8, ptr %25, i64 1
  store i8 97, ptr %26, align 1, !tbaa !34
  br label %27

27:                                               ; preds = %19, %14
  %.sink35 = phi ptr [ %21, %19 ], [ %16, %14 ]
  %.sink33 = phi i64 [ 2, %19 ], [ 1, %14 ]
  %.sink30 = phi i8 [ 108, %19 ], [ 114, %14 ]
  %.sink27 = phi i64 [ 3, %19 ], [ 2, %14 ]
  %.sink = phi i8 [ 115, %19 ], [ 117, %14 ]
  %.sink23 = phi i64 [ 4, %19 ], [ 3, %14 ]
  %28 = load ptr, ptr %.sink35, align 8, !tbaa !182
  %29 = getelementptr i8, ptr %28, i64 %13
  %30 = getelementptr i8, ptr %29, i64 %.sink33
  store i8 %.sink30, ptr %30, align 1, !tbaa !34
  %31 = load ptr, ptr %.sink35, align 8, !tbaa !182
  %32 = getelementptr i8, ptr %31, i64 %13
  %33 = getelementptr i8, ptr %32, i64 %.sink27
  store i8 %.sink, ptr %33, align 1, !tbaa !34
  %34 = load ptr, ptr %.sink35, align 8, !tbaa !182
  %35 = getelementptr i8, ptr %34, i64 %13
  %36 = getelementptr i8, ptr %35, i64 %.sink23
  store i8 101, ptr %36, align 1, !tbaa !34
  ret void
}